; ModuleID = '8/186.c'
source_filename = "8/186.c"
target datalayout = "e-m:e-p270:32:32-p271:32:32-p272:64:64-i64:64-f80:128-n8:16:32:64-S128"
target triple = "x86_64-pc-linux-gnu"

@.str = private unnamed_addr constant [5 x i8] c"%d%d\00", align 1
@n = common dso_local global i32 0, align 4
@m = common dso_local global i32 0, align 4
@.str.1 = private unnamed_addr constant [3 x i8] c"%d\00", align 1
@a = common dso_local global [1000 x i32] zeroinitializer, align 16
@b = common dso_local global [1000 x i32] zeroinitializer, align 16
@c = common dso_local global [2000 x i32] zeroinitializer, align 16
@.str.2 = private unnamed_addr constant [4 x i8] c" %d\00", align 1

; Function Attrs: noinline nounwind uwtable
define dso_local void @read() #0 {
  %1 = alloca i32, align 4
  %2 = call i32 (i8*, ...) @__isoc99_scanf(i8* getelementptr inbounds ([5 x i8], [5 x i8]* @.str, i64 0, i64 0), i32* @n, i32* @m)
  store i32 0, i32* %1, align 4
  br label %3

3:                                                ; preds = %12, %0
  %4 = load i32, i32* %1, align 4
  %5 = load i32, i32* @n, align 4
  %6 = icmp slt i32 %4, %5
  br i1 %6, label %7, label %15

7:                                                ; preds = %3
  %8 = load i32, i32* %1, align 4
  %9 = sext i32 %8 to i64
  %10 = getelementptr inbounds i32, i32* getelementptr inbounds ([1000 x i32], [1000 x i32]* @a, i64 0, i64 0), i64 %9
  %11 = call i32 (i8*, ...) @__isoc99_scanf(i8* getelementptr inbounds ([3 x i8], [3 x i8]* @.str.1, i64 0, i64 0), i32* %10)
  br label %12

12:                                               ; preds = %7
  %13 = load i32, i32* %1, align 4
  %14 = add nsw i32 %13, 1
  store i32 %14, i32* %1, align 4
  br label %3

15:                                               ; preds = %3
  store i32 0, i32* %1, align 4
  br label %16

16:                                               ; preds = %25, %15
  %17 = load i32, i32* %1, align 4
  %18 = load i32, i32* @m, align 4
  %19 = icmp slt i32 %17, %18
  br i1 %19, label %20, label %28

20:                                               ; preds = %16
  %21 = load i32, i32* %1, align 4
  %22 = sext i32 %21 to i64
  %23 = getelementptr inbounds i32, i32* getelementptr inbounds ([1000 x i32], [1000 x i32]* @b, i64 0, i64 0), i64 %22
  %24 = call i32 (i8*, ...) @__isoc99_scanf(i8* getelementptr inbounds ([3 x i8], [3 x i8]* @.str.1, i64 0, i64 0), i32* %23)
  br label %25

25:                                               ; preds = %20
  %26 = load i32, i32* %1, align 4
  %27 = add nsw i32 %26, 1
  store i32 %27, i32* %1, align 4
  br label %16

28:                                               ; preds = %16
  ret void
}

declare dso_local i32 @__isoc99_scanf(i8*, ...) #1

; Function Attrs: noinline nounwind uwtable
define dso_local i32 @cmp(i8* %0, i8* %1) #0 {
  %3 = alloca i8*, align 8
  %4 = alloca i8*, align 8
  store i8* %0, i8** %3, align 8
  store i8* %1, i8** %4, align 8
  %5 = load i8*, i8** %3, align 8
  %6 = bitcast i8* %5 to i32*
  %7 = load i32, i32* %6, align 4
  %8 = load i8*, i8** %4, align 8
  %9 = bitcast i8* %8 to i32*
  %10 = load i32, i32* %9, align 4
  %11 = sub nsw i32 %7, %10
  ret i32 %11
}

; Function Attrs: noinline nounwind uwtable
define dso_local void @sort() #0 {
  %1 = load i32, i32* @n, align 4
  %2 = sext i32 %1 to i64
  call void @qsort(i8* bitcast ([1000 x i32]* @a to i8*), i64 %2, i64 4, i32 (i8*, i8*)* @cmp)
  %3 = load i32, i32* @m, align 4
  %4 = sext i32 %3 to i64
  call void @qsort(i8* bitcast ([1000 x i32]* @b to i8*), i64 %4, i64 4, i32 (i8*, i8*)* @cmp)
  ret void
}

declare dso_local void @qsort(i8*, i64, i64, i32 (i8*, i8*)*) #1

; Function Attrs: noinline nounwind uwtable
define dso_local void @merge() #0 {
  %1 = alloca i32, align 4
  store i32 0, i32* %1, align 4
  br label %2

2:                                                ; preds = %14, %0
  %3 = load i32, i32* %1, align 4
  %4 = load i32, i32* @n, align 4
  %5 = icmp slt i32 %3, %4
  br i1 %5, label %6, label %17

6:                                                ; preds = %2
  %7 = load i32, i32* %1, align 4
  %8 = sext i32 %7 to i64
  %9 = getelementptr inbounds [1000 x i32], [1000 x i32]* @a, i64 0, i64 %8
  %10 = load i32, i32* %9, align 4
  %11 = load i32, i32* %1, align 4
  %12 = sext i32 %11 to i64
  %13 = getelementptr inbounds [2000 x i32], [2000 x i32]* @c, i64 0, i64 %12
  store i32 %10, i32* %13, align 4
  br label %14

14:                                               ; preds = %6
  %15 = load i32, i32* %1, align 4
  %16 = add nsw i32 %15, 1
  store i32 %16, i32* %1, align 4
  br label %2

17:                                               ; preds = %2
  store i32 0, i32* %1, align 4
  br label %18

18:                                               ; preds = %32, %17
  %19 = load i32, i32* %1, align 4
  %20 = load i32, i32* @m, align 4
  %21 = icmp slt i32 %19, %20
  br i1 %21, label %22, label %35

22:                                               ; preds = %18
  %23 = load i32, i32* %1, align 4
  %24 = sext i32 %23 to i64
  %25 = getelementptr inbounds [1000 x i32], [1000 x i32]* @b, i64 0, i64 %24
  %26 = load i32, i32* %25, align 4
  %27 = load i32, i32* @n, align 4
  %28 = load i32, i32* %1, align 4
  %29 = add nsw i32 %27, %28
  %30 = sext i32 %29 to i64
  %31 = getelementptr inbounds [2000 x i32], [2000 x i32]* @c, i64 0, i64 %30
  store i32 %26, i32* %31, align 4
  br label %32

32:                                               ; preds = %22
  %33 = load i32, i32* %1, align 4
  %34 = add nsw i32 %33, 1
  store i32 %34, i32* %1, align 4
  br label %18

35:                                               ; preds = %18
  ret void
}

; Function Attrs: noinline nounwind uwtable
define dso_local void @output() #0 {
  %1 = alloca i32, align 4
  %2 = load i32, i32* getelementptr inbounds ([2000 x i32], [2000 x i32]* @c, i64 0, i64 0), align 16
  %3 = call i32 (i8*, ...) @printf(i8* getelementptr inbounds ([3 x i8], [3 x i8]* @.str.1, i64 0, i64 0), i32 %2)
  store i32 1, i32* %1, align 4
  br label %4

4:                                                ; preds = %16, %0
  %5 = load i32, i32* %1, align 4
  %6 = load i32, i32* @n, align 4
  %7 = load i32, i32* @m, align 4
  %8 = add nsw i32 %6, %7
  %9 = icmp slt i32 %5, %8
  br i1 %9, label %10, label %19

10:                                               ; preds = %4
  %11 = load i32, i32* %1, align 4
  %12 = sext i32 %11 to i64
  %13 = getelementptr inbounds [2000 x i32], [2000 x i32]* @c, i64 0, i64 %12
  %14 = load i32, i32* %13, align 4
  %15 = call i32 (i8*, ...) @printf(i8* getelementptr inbounds ([4 x i8], [4 x i8]* @.str.2, i64 0, i64 0), i32 %14)
  br label %16

16:                                               ; preds = %10
  %17 = load i32, i32* %1, align 4
  %18 = add nsw i32 %17, 1
  store i32 %18, i32* %1, align 4
  br label %4

19:                                               ; preds = %4
  ret void
}

declare dso_local i32 @printf(i8*, ...) #1

; Function Attrs: noinline nounwind uwtable
define dso_local i32 @main() #0 {
  %1 = alloca i32, align 4
  store i32 0, i32* %1, align 4
  call void @read()
  call void @sort()
  call void @merge()
  call void @output()
  ret i32 0
}


!llvm.module.flags = !{!0}
!llvm.ident = !{!1}

!0 = !{i32 1, !"wchar_size", i32 4}
!1 = !{!"clang version 10.0.0-4ubuntu1 "}
