; ModuleID = 'source-C-CXX/7/186.c'
source_filename = "source-C-CXX/7/186.c"
target datalayout = "e-m:e-p270:32:32-p271:32:32-p272:64:64-i64:64-f80:128-n8:16:32:64-S128"
target triple = "x86_64-pc-linux-gnu"

@.str = private unnamed_addr constant [5 x i8] c"%d%d\00", align 1
@n = dso_local global i32 0, align 4
@m = dso_local global i32 0, align 4
@.str.1 = private unnamed_addr constant [3 x i8] c"%d\00", align 1
@a = dso_local global [1000 x i32] zeroinitializer, align 16
@b = dso_local global [1000 x i32] zeroinitializer, align 16
@c = dso_local local_unnamed_addr global [2000 x i32] zeroinitializer, align 16
@.str.2 = private unnamed_addr constant [4 x i8] c" %d\00", align 1

; Function Attrs: nofree nounwind sspstrong uwtable
define dso_local void @read() local_unnamed_addr #0 {
  %1 = tail call i32 (i8*, ...) @__isoc99_scanf(i8* getelementptr inbounds ([5 x i8], [5 x i8]* @.str, i64 0, i64 0), i32* nonnull @n, i32* nonnull @m)
  %2 = load i32, i32* @n, align 4, !tbaa !5
  %3 = icmp sgt i32 %2, 0
  br i1 %3, label %7, label %4

4:                                                ; preds = %7, %0
  %5 = load i32, i32* @m, align 4, !tbaa !5
  %6 = icmp sgt i32 %5, 0
  br i1 %6, label %15, label %23

7:                                                ; preds = %0, %7
  %8 = phi i64 [ %11, %7 ], [ 0, %0 ]
  %9 = getelementptr inbounds [1000 x i32], [1000 x i32]* @a, i64 0, i64 %8
  %10 = tail call i32 (i8*, ...) @__isoc99_scanf(i8* getelementptr inbounds ([3 x i8], [3 x i8]* @.str.1, i64 0, i64 0), i32* nonnull %9)
  %11 = add nuw nsw i64 %8, 1
  %12 = load i32, i32* @n, align 4, !tbaa !5
  %13 = sext i32 %12 to i64
  %14 = icmp slt i64 %11, %13
  br i1 %14, label %7, label %4, !llvm.loop !9

15:                                               ; preds = %4, %15
  %16 = phi i64 [ %19, %15 ], [ 0, %4 ]
  %17 = getelementptr inbounds [1000 x i32], [1000 x i32]* @b, i64 0, i64 %16
  %18 = tail call i32 (i8*, ...) @__isoc99_scanf(i8* getelementptr inbounds ([3 x i8], [3 x i8]* @.str.1, i64 0, i64 0), i32* nonnull %17)
  %19 = add nuw nsw i64 %16, 1
  %20 = load i32, i32* @m, align 4, !tbaa !5
  %21 = sext i32 %20 to i64
  %22 = icmp slt i64 %19, %21
  br i1 %22, label %15, label %23, !llvm.loop !11

23:                                               ; preds = %15, %4
  ret void
}

; Function Attrs: nofree nounwind
declare noundef i32 @__isoc99_scanf(i8* nocapture noundef readonly, ...) local_unnamed_addr #1

; Function Attrs: mustprogress nofree norecurse nosync nounwind readonly sspstrong uwtable willreturn
define dso_local i32 @cmp(i8* nocapture readonly %0, i8* nocapture readonly %1) #2 {
  %3 = bitcast i8* %0 to i32*
  %4 = load i32, i32* %3, align 4, !tbaa !5
  %5 = bitcast i8* %1 to i32*
  %6 = load i32, i32* %5, align 4, !tbaa !5
  %7 = sub nsw i32 %4, %6
  ret i32 %7
}

; Function Attrs: nofree nounwind sspstrong uwtable
define dso_local void @sort() local_unnamed_addr #0 {
  %1 = load i32, i32* @n, align 4, !tbaa !5
  %2 = sext i32 %1 to i64
  tail call void @qsort(i8* bitcast ([1000 x i32]* @a to i8*), i64 %2, i64 4, i32 (i8*, i8*)* nonnull @cmp) #6
  %3 = load i32, i32* @m, align 4, !tbaa !5
  %4 = sext i32 %3 to i64
  tail call void @qsort(i8* bitcast ([1000 x i32]* @b to i8*), i64 %4, i64 4, i32 (i8*, i8*)* nonnull @cmp) #6
  ret void
}

; Function Attrs: nofree
declare void @qsort(i8* noundef, i64 noundef, i64 noundef, i32 (i8*, i8*)* nocapture noundef) local_unnamed_addr #3

; Function Attrs: nofree norecurse nosync nounwind sspstrong uwtable
define dso_local void @merge() local_unnamed_addr #4 {
  %1 = load i32, i32* @n, align 4, !tbaa !5
  %2 = icmp sgt i32 %1, 0
  br i1 %2, label %3, label %6

3:                                                ; preds = %0
  %4 = zext i32 %1 to i64
  %5 = shl nuw nsw i64 %4, 2
  call void @llvm.memcpy.p0i8.p0i8.i64(i8* align 16 bitcast ([2000 x i32]* @c to i8*), i8* align 16 bitcast ([1000 x i32]* @a to i8*), i64 %5, i1 false)
  br label %6

6:                                                ; preds = %3, %0
  %7 = load i32, i32* @m, align 4, !tbaa !5
  %8 = icmp sgt i32 %7, 0
  br i1 %8, label %9, label %15

9:                                                ; preds = %6
  %10 = sext i32 %1 to i64
  %11 = getelementptr [2000 x i32], [2000 x i32]* @c, i64 0, i64 %10
  %12 = bitcast i32* %11 to i8*
  %13 = zext i32 %7 to i64
  %14 = shl nuw nsw i64 %13, 2
  call void @llvm.memcpy.p0i8.p0i8.i64(i8* align 4 %12, i8* align 16 bitcast ([1000 x i32]* @b to i8*), i64 %14, i1 false)
  br label %15

15:                                               ; preds = %9, %6
  ret void
}

; Function Attrs: nofree nounwind sspstrong uwtable
define dso_local void @output() local_unnamed_addr #0 {
  %1 = load i32, i32* getelementptr inbounds ([2000 x i32], [2000 x i32]* @c, i64 0, i64 0), align 16, !tbaa !5
  %2 = tail call i32 (i8*, ...) @printf(i8* nonnull dereferenceable(1) getelementptr inbounds ([3 x i8], [3 x i8]* @.str.1, i64 0, i64 0), i32 %1)
  %3 = load i32, i32* @n, align 4, !tbaa !5
  %4 = load i32, i32* @m, align 4, !tbaa !5
  %5 = add nsw i32 %4, %3
  %6 = icmp sgt i32 %5, 1
  br i1 %6, label %7, label %18

7:                                                ; preds = %0, %7
  %8 = phi i64 [ %12, %7 ], [ 1, %0 ]
  %9 = getelementptr inbounds [2000 x i32], [2000 x i32]* @c, i64 0, i64 %8
  %10 = load i32, i32* %9, align 4, !tbaa !5
  %11 = tail call i32 (i8*, ...) @printf(i8* nonnull dereferenceable(1) getelementptr inbounds ([4 x i8], [4 x i8]* @.str.2, i64 0, i64 0), i32 %10)
  %12 = add nuw nsw i64 %8, 1
  %13 = load i32, i32* @n, align 4, !tbaa !5
  %14 = load i32, i32* @m, align 4, !tbaa !5
  %15 = add nsw i32 %14, %13
  %16 = sext i32 %15 to i64
  %17 = icmp slt i64 %12, %16
  br i1 %17, label %7, label %18, !llvm.loop !12

18:                                               ; preds = %7, %0
  ret void
}

; Function Attrs: nofree nounwind
declare noundef i32 @printf(i8* nocapture noundef readonly, ...) local_unnamed_addr #1

; Function Attrs: nofree nounwind sspstrong uwtable
define dso_local i32 @main() local_unnamed_addr #0 {
  %1 = tail call i32 (i8*, ...) @__isoc99_scanf(i8* getelementptr inbounds ([5 x i8], [5 x i8]* @.str, i64 0, i64 0), i32* nonnull @n, i32* nonnull @m) #6
  %2 = load i32, i32* @n, align 4, !tbaa !5
  %3 = icmp sgt i32 %2, 0
  br i1 %3, label %8, label %4

4:                                                ; preds = %8, %0
  %5 = phi i32 [ %2, %0 ], [ %13, %8 ]
  %6 = load i32, i32* @m, align 4, !tbaa !5
  %7 = icmp sgt i32 %6, 0
  br i1 %7, label %16, label %26

8:                                                ; preds = %0, %8
  %9 = phi i64 [ %12, %8 ], [ 0, %0 ]
  %10 = getelementptr inbounds [1000 x i32], [1000 x i32]* @a, i64 0, i64 %9
  %11 = tail call i32 (i8*, ...) @__isoc99_scanf(i8* getelementptr inbounds ([3 x i8], [3 x i8]* @.str.1, i64 0, i64 0), i32* nonnull %10) #6
  %12 = add nuw nsw i64 %9, 1
  %13 = load i32, i32* @n, align 4, !tbaa !5
  %14 = sext i32 %13 to i64
  %15 = icmp slt i64 %12, %14
  br i1 %15, label %8, label %4, !llvm.loop !9

16:                                               ; preds = %4, %16
  %17 = phi i64 [ %20, %16 ], [ 0, %4 ]
  %18 = getelementptr inbounds [1000 x i32], [1000 x i32]* @b, i64 0, i64 %17
  %19 = tail call i32 (i8*, ...) @__isoc99_scanf(i8* getelementptr inbounds ([3 x i8], [3 x i8]* @.str.1, i64 0, i64 0), i32* nonnull %18) #6
  %20 = add nuw nsw i64 %17, 1
  %21 = load i32, i32* @m, align 4, !tbaa !5
  %22 = sext i32 %21 to i64
  %23 = icmp slt i64 %20, %22
  br i1 %23, label %16, label %24, !llvm.loop !11

24:                                               ; preds = %16
  %25 = load i32, i32* @n, align 4, !tbaa !5
  br label %26

26:                                               ; preds = %24, %4
  %27 = phi i32 [ %25, %24 ], [ %5, %4 ]
  %28 = sext i32 %27 to i64
  tail call void @qsort(i8* bitcast ([1000 x i32]* @a to i8*), i64 %28, i64 4, i32 (i8*, i8*)* nonnull @cmp) #6
  %29 = load i32, i32* @m, align 4, !tbaa !5
  %30 = sext i32 %29 to i64
  tail call void @qsort(i8* bitcast ([1000 x i32]* @b to i8*), i64 %30, i64 4, i32 (i8*, i8*)* nonnull @cmp) #6
  %31 = load i32, i32* @n, align 4, !tbaa !5
  %32 = icmp sgt i32 %31, 0
  br i1 %32, label %33, label %36

33:                                               ; preds = %26
  %34 = zext i32 %31 to i64
  %35 = shl nuw nsw i64 %34, 2
  tail call void @llvm.memcpy.p0i8.p0i8.i64(i8* align 16 bitcast ([2000 x i32]* @c to i8*), i8* align 16 bitcast ([1000 x i32]* @a to i8*), i64 %35, i1 false) #6
  br label %36

36:                                               ; preds = %33, %26
  %37 = load i32, i32* @m, align 4, !tbaa !5
  %38 = icmp sgt i32 %37, 0
  br i1 %38, label %39, label %45

39:                                               ; preds = %36
  %40 = sext i32 %31 to i64
  %41 = getelementptr [2000 x i32], [2000 x i32]* @c, i64 0, i64 %40
  %42 = bitcast i32* %41 to i8*
  %43 = zext i32 %37 to i64
  %44 = shl nuw nsw i64 %43, 2
  tail call void @llvm.memcpy.p0i8.p0i8.i64(i8* align 4 %42, i8* align 16 bitcast ([1000 x i32]* @b to i8*), i64 %44, i1 false) #6
  br label %45

45:                                               ; preds = %36, %39
  %46 = load i32, i32* getelementptr inbounds ([2000 x i32], [2000 x i32]* @c, i64 0, i64 0), align 16, !tbaa !5
  %47 = tail call i32 (i8*, ...) @printf(i8* nonnull dereferenceable(1) getelementptr inbounds ([3 x i8], [3 x i8]* @.str.1, i64 0, i64 0), i32 %46) #6
  %48 = load i32, i32* @n, align 4, !tbaa !5
  %49 = load i32, i32* @m, align 4, !tbaa !5
  %50 = add nsw i32 %49, %48
  %51 = icmp sgt i32 %50, 1
  br i1 %51, label %52, label %63

52:                                               ; preds = %45, %52
  %53 = phi i64 [ %57, %52 ], [ 1, %45 ]
  %54 = getelementptr inbounds [2000 x i32], [2000 x i32]* @c, i64 0, i64 %53
  %55 = load i32, i32* %54, align 4, !tbaa !5
  %56 = tail call i32 (i8*, ...) @printf(i8* nonnull dereferenceable(1) getelementptr inbounds ([4 x i8], [4 x i8]* @.str.2, i64 0, i64 0), i32 %55) #6
  %57 = add nuw nsw i64 %53, 1
  %58 = load i32, i32* @n, align 4, !tbaa !5
  %59 = load i32, i32* @m, align 4, !tbaa !5
  %60 = add nsw i32 %59, %58
  %61 = sext i32 %60 to i64
  %62 = icmp slt i64 %57, %61
  br i1 %62, label %52, label %63, !llvm.loop !12

63:                                               ; preds = %52, %45
  ret i32 0
}

; Function Attrs: argmemonly nofree nounwind willreturn
declare void @llvm.memcpy.p0i8.p0i8.i64(i8* noalias nocapture writeonly, i8* noalias nocapture readonly, i64, i1 immarg) #5


!llvm.module.flags = !{!0, !1, !2, !3}
!llvm.ident = !{!4}

!0 = !{i32 1, !"wchar_size", i32 4}
!1 = !{i32 7, !"PIC Level", i32 2}
!2 = !{i32 7, !"PIE Level", i32 2}
!3 = !{i32 7, !"uwtable", i32 1}
!4 = !{!"clang version 13.0.0"}
!5 = !{!6, !6, i64 0}
!6 = !{!"int", !7, i64 0}
!7 = !{!"omnipotent char", !8, i64 0}
!8 = !{!"Simple C/C++ TBAA"}
!9 = distinct !{!9, !10}
!10 = !{!"llvm.loop.mustprogress"}
!11 = distinct !{!11, !10}
!12 = distinct !{!12, !10}
